target datalayout = "e-m:e-p270:32:32-p271:32:32-p272:64:64-i64:64-i128:128-f80:128-n8:16:32:64-S128"
target triple = "x86_64-pc-linux-gnu"

%struct._object = type { %union.anon, ptr }
%union.anon = type { i64 }
%struct.Blake2Object = type { %struct._object, %union.anon.0, i32, i8, %struct.PyMutex }
%union.anon.0 = type { ptr }
%struct.PyMutex = type { i8 }

@.str.28 = private unnamed_addr constant [8 x i8] c"blake2b\00", align 1
@.str.29 = private unnamed_addr constant [8 x i8] c"blake2s\00", align 1

; Function Attrs: inlinehint nounwind uwtable
define internal zeroext i1 @is_blake2b(i32 noundef %0) #3 {
  %2 = alloca i32, align 4
  store i32 %0, ptr %2, align 4, !tbaa !12
  %3 = load i32, ptr %2, align 4, !tbaa !12
  %4 = icmp eq i32 %3, 1
  br i1 %4, label %8, label %5

5:                                                ; preds = %1
  %6 = load i32, ptr %2, align 4, !tbaa !12
  %7 = icmp eq i32 %6, 3
  br label %8

8:                                                ; preds = %5, %1
  %9 = phi i1 [ true, %1 ], [ %7, %5 ]
  ret i1 %9
}

; Function Attrs: nounwind uwtable
define internal ptr @py_blake2b_get_name(ptr noundef %0, ptr noundef %1) #0 {
  %3 = alloca ptr, align 8
  %4 = alloca ptr, align 8
  %5 = alloca ptr, align 8
  store ptr %0, ptr %3, align 8, !tbaa !24
  store ptr %1, ptr %4, align 8, !tbaa !3
  call void @llvm.lifetime.start.p0(i64 8, ptr %5) #8
  %6 = load ptr, ptr %3, align 8, !tbaa !24
  store ptr %6, ptr %5, align 8, !tbaa !3
  %7 = load ptr, ptr %5, align 8, !tbaa !3
  %8 = getelementptr inbounds nuw %struct.Blake2Object, ptr %7, i32 0, i32 2
  %9 = load i32, ptr %8, align 8, !tbaa !47
  %10 = call zeroext i1 @is_blake2b(i32 noundef %9)
  %11 = select i1 %10, ptr @.str.28, ptr @.str.29
  %12 = call ptr @PyUnicode_FromString(ptr noundef %11)
  call void @llvm.lifetime.end.p0(i64 8, ptr %5) #8
  ret ptr %12
}